target datalayout = "e-m:e-p270:32:32-p271:32:32-p272:64:64-i64:64-i128:128-f80:128-n8:16:32:64-S128"
target triple = "x86_64-pc-linux-gnu"

%"struct.std::_Rb_tree_key_compare.17" = type { %"struct.std::less" }
%"struct.std::less" = type { i8 }
%"struct.std::_Rb_tree_header" = type { %"struct.std::_Rb_tree_node_base", i64 }
%"struct.std::_Rb_tree_node_base" = type { i32, ptr, ptr, ptr }
%"class.std::__cxx11::basic_string" = type { %"struct.std::__cxx11::basic_string<char>::_Alloc_hider", i64, %union.anon }
%"struct.std::__cxx11::basic_string<char>::_Alloc_hider" = type { ptr }
%union.anon = type { i64, [8 x i8] }
%"class.std::optional.51" = type { %"struct.std::_Optional_base.52" }
%"struct.std::_Optional_base.52" = type { %"struct.std::_Optional_payload.54" }
%"struct.std::_Optional_payload.54" = type { %"struct.std::_Optional_payload.base.58", [7 x i8] }
%"struct.std::_Optional_payload.base.58" = type { %"struct.std::_Optional_payload_base.base.57" }
%"struct.std::_Optional_payload_base.base.57" = type <{ %"union.std::_Optional_payload_base<std::__cxx11::basic_string<char>>::_Storage", i8 }>
%"union.std::_Optional_payload_base<std::__cxx11::basic_string<char>>::_Storage" = type { %"class.std::__cxx11::basic_string" }
%"struct.std::__detail::_List_node_header" = type { %"struct.std::__detail::_List_node_base", i64 }
%"struct.std::__detail::_List_node_base" = type { ptr, ptr }
%"class.std::optional" = type { %"struct.std::_Optional_base" }
%"struct.std::_Optional_base" = type { %"struct.std::_Optional_payload" }
%"struct.std::_Optional_payload" = type { %"struct.std::_Optional_payload_base.base", [7 x i8] }
%"struct.std::_Optional_payload_base.base" = type { %"union.std::_Optional_payload_base<nix::ContentAddress>::_Storage", i8 }
%"union.std::_Optional_payload_base<nix::ContentAddress>::_Storage" = type { %"struct.nix::ContentAddress" }
%"struct.nix::ContentAddress" = type { %"struct.nix::ContentAddressMethod", [6 x i8], %"struct.nix::Hash" }
%"struct.nix::ContentAddressMethod" = type { %"class.std::variant" }
%"class.std::variant" = type { %"struct.std::__detail::__variant::_Variant_base" }
%"struct.std::__detail::__variant::_Variant_base" = type { %"struct.std::__detail::__variant::_Move_assign_base" }
%"struct.std::__detail::__variant::_Move_assign_base" = type { %"struct.std::__detail::__variant::_Copy_assign_base" }
%"struct.std::__detail::__variant::_Copy_assign_base" = type { %"struct.std::__detail::__variant::_Move_ctor_base" }
%"struct.std::__detail::__variant::_Move_ctor_base" = type { %"struct.std::__detail::__variant::_Copy_ctor_base" }
%"struct.std::__detail::__variant::_Copy_ctor_base" = type { %"struct.std::__detail::__variant::_Variant_storage" }
%"struct.std::__detail::__variant::_Variant_storage" = type { %"union.std::__detail::__variant::_Variadic_union", i8 }
%"union.std::__detail::__variant::_Variadic_union" = type { %"struct.std::__detail::__variant::_Uninitialized" }
%"struct.std::__detail::__variant::_Uninitialized" = type { %"struct.nix::TextIngestionMethod" }
%"struct.nix::TextIngestionMethod" = type { i8 }
%"struct.nix::Hash" = type <{ i64, [64 x i8], i8, [7 x i8] }>
%"class.nix::StorePath" = type { %"class.std::__cxx11::basic_string" }
%"class.std::allocator.10" = type { i8 }
%"class.std::unique_ptr.91" = type { %"struct.std::__uniq_ptr_data.92" }
%"struct.std::__uniq_ptr_data.92" = type { %"class.std::__uniq_ptr_impl.93" }
%"class.std::__uniq_ptr_impl.93" = type { %"class.std::tuple.94" }
%"class.std::tuple.94" = type { %"struct.std::_Tuple_impl.95" }
%"struct.std::_Tuple_impl.95" = type { %"struct.std::_Head_base.98" }
%"struct.std::_Head_base.98" = type { ptr }
%"struct.nix::PathSubstitutionGoal" = type { %"struct.nix::Goal", %"class.nix::StorePath", %"class.std::optional.65", %"class.std::__cxx11::list.75", %"class.std::shared_ptr.80", i8, %"class.std::shared_ptr.83", %"class.nix::Pipe", %"class.std::thread", %"class.std::promise", i8, %"class.std::__cxx11::basic_string", %"class.std::unique_ptr.91", %"class.std::unique_ptr.91", %"class.std::unique_ptr.91", %"class.std::unique_ptr.91", { i64, i64 }, %"class.std::optional" }
%"struct.nix::Goal" = type { ptr, %"class.std::enable_shared_from_this", ptr, %"class.std::set", %"class.std::set.4", i64, i64, i64, %"class.std::__cxx11::basic_string", i32, %"struct.nix::BuildResult", %"class.std::optional.27" }
%"class.std::enable_shared_from_this" = type { %"class.std::weak_ptr" }
%"class.std::weak_ptr" = type { %"class.std::__weak_ptr" }
%"class.std::__weak_ptr" = type { ptr, %"class.std::__weak_count" }
%"class.std::__weak_count" = type { ptr }
%"class.std::set" = type { %"class.std::_Rb_tree" }
%"class.std::_Rb_tree" = type { %"struct.std::_Rb_tree<std::shared_ptr<nix::Goal>, std::shared_ptr<nix::Goal>, std::_Identity<std::shared_ptr<nix::Goal>>, nix::CompareGoalPtrs>::_Rb_tree_impl" }
%"struct.std::_Rb_tree<std::shared_ptr<nix::Goal>, std::shared_ptr<nix::Goal>, std::_Identity<std::shared_ptr<nix::Goal>>, nix::CompareGoalPtrs>::_Rb_tree_impl" = type { %"struct.std::_Rb_tree_key_compare", %"struct.std::_Rb_tree_header" }
%"struct.std::_Rb_tree_key_compare" = type { %"struct.nix::CompareGoalPtrs" }
%"struct.nix::CompareGoalPtrs" = type { i8 }
%"class.std::set.4" = type { %"class.std::_Rb_tree.5" }
%"class.std::_Rb_tree.5" = type { %"struct.std::_Rb_tree<std::weak_ptr<nix::Goal>, std::weak_ptr<nix::Goal>, std::_Identity<std::weak_ptr<nix::Goal>>, std::owner_less<std::weak_ptr<nix::Goal>>>::_Rb_tree_impl" }
%"struct.std::_Rb_tree<std::weak_ptr<nix::Goal>, std::weak_ptr<nix::Goal>, std::_Identity<std::weak_ptr<nix::Goal>>, std::owner_less<std::weak_ptr<nix::Goal>>>::_Rb_tree_impl" = type { %"struct.std::_Rb_tree_key_compare.9", %"struct.std::_Rb_tree_header" }
%"struct.std::_Rb_tree_key_compare.9" = type { %"struct.std::owner_less" }
%"struct.std::owner_less" = type { i8 }
%"struct.nix::BuildResult" = type { i32, %"class.std::__cxx11::basic_string", i32, i8, %"class.std::map", i64, i64, %"class.std::optional.19", %"class.std::optional.19" }
%"class.std::map" = type { %"class.std::_Rb_tree.13" }
%"class.std::_Rb_tree.13" = type { %"struct.std::_Rb_tree<std::__cxx11::basic_string<char>, std::pair<const std::__cxx11::basic_string<char>, nix::Realisation>, std::_Select1st<std::pair<const std::__cxx11::basic_string<char>, nix::Realisation>>, std::less<std::__cxx11::basic_string<char>>>::_Rb_tree_impl" }
%"struct.std::_Rb_tree<std::__cxx11::basic_string<char>, std::pair<const std::__cxx11::basic_string<char>, nix::Realisation>, std::_Select1st<std::pair<const std::__cxx11::basic_string<char>, nix::Realisation>>, std::less<std::__cxx11::basic_string<char>>>::_Rb_tree_impl" = type { %"struct.std::_Rb_tree_key_compare.17", %"struct.std::_Rb_tree_header" }
%"class.std::optional.19" = type { %"struct.std::_Optional_base.20" }
%"struct.std::_Optional_base.20" = type { %"struct.std::_Optional_payload.22" }
%"struct.std::_Optional_payload.22" = type { %"struct.std::_Optional_payload_base.base.24", [7 x i8] }
%"struct.std::_Optional_payload_base.base.24" = type <{ %"union.std::_Optional_payload_base<std::chrono::duration<long, std::ratio<1, 1000000>>>::_Storage", i8 }>
%"union.std::_Optional_payload_base<std::chrono::duration<long, std::ratio<1, 1000000>>>::_Storage" = type { %"class.std::chrono::duration" }
%"class.std::chrono::duration" = type { i64 }
%"class.std::optional.27" = type { %"struct.std::_Optional_base.28" }
%"struct.std::_Optional_base.28" = type { %"struct.std::_Optional_payload.30" }
%"struct.std::_Optional_payload.30" = type { %"struct.std::_Optional_payload.base.62", [7 x i8] }
%"struct.std::_Optional_payload.base.62" = type { %"struct.std::_Optional_payload_base.base.61" }
%"struct.std::_Optional_payload_base.base.61" = type <{ %"union.std::_Optional_payload_base<nix::Error>::_Storage", i8 }>
%"union.std::_Optional_payload_base<nix::Error>::_Storage" = type { %"class.nix::Error" }
%"class.nix::Error" = type { %"class.nix::BaseError" }
%"class.nix::BaseError" = type { %"class.std::exception", %"struct.nix::ErrorInfo", %"class.std::optional.51" }
%"class.std::exception" = type { ptr }
%"struct.nix::ErrorInfo" = type { i32, %"class.nix::HintFmt", %"class.std::shared_ptr", %"class.std::__cxx11::list", i32, %"class.nix::Suggestions" }
%"class.nix::HintFmt" = type { %"class.boost::basic_format" }
%"class.boost::basic_format" = type { %"class.std::vector", %"class.std::vector.36", i32, i32, i32, i8, %"class.std::__cxx11::basic_string", i8, [7 x i8], %"class.boost::io::basic_altstringbuf", %"class.boost::optional" }
%"class.std::vector" = type { %"struct.std::_Vector_base" }
%"struct.std::_Vector_base" = type { %"struct.std::_Vector_base<boost::io::detail::format_item<char, std::char_traits<char>, std::allocator<char>>, std::allocator<boost::io::detail::format_item<char, std::char_traits<char>, std::allocator<char>>>>::_Vector_impl" }
%"struct.std::_Vector_base<boost::io::detail::format_item<char, std::char_traits<char>, std::allocator<char>>, std::allocator<boost::io::detail::format_item<char, std::char_traits<char>, std::allocator<char>>>>::_Vector_impl" = type { %"struct.std::_Vector_base<boost::io::detail::format_item<char, std::char_traits<char>, std::allocator<char>>, std::allocator<boost::io::detail::format_item<char, std::char_traits<char>, std::allocator<char>>>>::_Vector_impl_data" }
%"struct.std::_Vector_base<boost::io::detail::format_item<char, std::char_traits<char>, std::allocator<char>>, std::allocator<boost::io::detail::format_item<char, std::char_traits<char>, std::allocator<char>>>>::_Vector_impl_data" = type { ptr, ptr, ptr }
%"class.std::vector.36" = type { %"struct.std::_Bvector_base" }
%"struct.std::_Bvector_base" = type { %"struct.std::_Bvector_base<std::allocator<bool>>::_Bvector_impl" }
%"struct.std::_Bvector_base<std::allocator<bool>>::_Bvector_impl" = type { %"struct.std::_Bvector_base<std::allocator<bool>>::_Bvector_impl_data" }
%"struct.std::_Bvector_base<std::allocator<bool>>::_Bvector_impl_data" = type { %"struct.std::_Bit_iterator", %"struct.std::_Bit_iterator", ptr }
%"struct.std::_Bit_iterator" = type { %"struct.std::_Bit_iterator_base.base", [4 x i8] }
%"struct.std::_Bit_iterator_base.base" = type <{ ptr, i32 }>
%"class.boost::io::basic_altstringbuf" = type <{ %"class.std::basic_streambuf", ptr, i8, [3 x i8], i32, %"class.std::allocator.10", [7 x i8] }>
%"class.std::basic_streambuf" = type { ptr, ptr, ptr, ptr, ptr, ptr, ptr, %"class.std::locale" }
%"class.std::locale" = type { ptr }
%"class.boost::optional" = type { %"class.boost::optional_detail::optional_base" }
%"class.boost::optional_detail::optional_base" = type { i8, [7 x i8], %"class.boost::optional_detail::aligned_storage" }
%"class.boost::optional_detail::aligned_storage" = type { %"union.boost::optional_detail::aligned_storage<std::locale>::dummy_u" }
%"union.boost::optional_detail::aligned_storage<std::locale>::dummy_u" = type { [8 x i8] }
%"class.std::shared_ptr" = type { %"class.std::__shared_ptr" }
%"class.std::__shared_ptr" = type { ptr, %"class.std::__shared_count" }
%"class.std::__shared_count" = type { ptr }
%"class.std::__cxx11::list" = type { %"class.std::__cxx11::_List_base" }
%"class.std::__cxx11::_List_base" = type { %"struct.std::__cxx11::_List_base<nix::Trace, std::allocator<nix::Trace>>::_List_impl" }
%"struct.std::__cxx11::_List_base<nix::Trace, std::allocator<nix::Trace>>::_List_impl" = type { %"struct.std::__detail::_List_node_header" }
%"class.nix::Suggestions" = type { %"class.std::set.43" }
%"class.std::set.43" = type { %"class.std::_Rb_tree.44" }
%"class.std::_Rb_tree.44" = type { %"struct.std::_Rb_tree<nix::Suggestion, nix::Suggestion, std::_Identity<nix::Suggestion>, std::less<nix::Suggestion>>::_Rb_tree_impl" }
%"struct.std::_Rb_tree<nix::Suggestion, nix::Suggestion, std::_Identity<nix::Suggestion>, std::less<nix::Suggestion>>::_Rb_tree_impl" = type { %"struct.std::_Rb_tree_key_compare.48", %"struct.std::_Rb_tree_header" }
%"struct.std::_Rb_tree_key_compare.48" = type { %"struct.std::less.49" }
%"struct.std::less.49" = type { i8 }
%"class.std::optional.65" = type { %"struct.std::_Optional_base.66" }
%"struct.std::_Optional_base.66" = type { %"struct.std::_Optional_payload.68" }
%"struct.std::_Optional_payload.68" = type { %"struct.std::_Optional_payload.base.72", [7 x i8] }
%"struct.std::_Optional_payload.base.72" = type { %"struct.std::_Optional_payload_base.base.71" }
%"struct.std::_Optional_payload_base.base.71" = type <{ %"union.std::_Optional_payload_base<nix::StorePath>::_Storage", i8 }>
%"union.std::_Optional_payload_base<nix::StorePath>::_Storage" = type { %"class.nix::StorePath" }
%"class.std::__cxx11::list.75" = type { %"class.std::__cxx11::_List_base.76" }
%"class.std::__cxx11::_List_base.76" = type { %"struct.std::__cxx11::_List_base<nix::ref<nix::Store>, std::allocator<nix::ref<nix::Store>>>::_List_impl" }
%"struct.std::__cxx11::_List_base<nix::ref<nix::Store>, std::allocator<nix::ref<nix::Store>>>::_List_impl" = type { %"struct.std::__detail::_List_node_header" }
%"class.std::shared_ptr.80" = type { %"class.std::__shared_ptr.81" }
%"class.std::__shared_ptr.81" = type { ptr, %"class.std::__shared_count" }
%"class.std::shared_ptr.83" = type { %"class.std::__shared_ptr.84" }
%"class.std::__shared_ptr.84" = type { ptr, %"class.std::__shared_count" }
%"class.nix::Pipe" = type { %"class.nix::AutoCloseFD", %"class.nix::AutoCloseFD" }
%"class.nix::AutoCloseFD" = type { i32 }
%"class.std::thread" = type { %"class.std::thread::id" }
%"class.std::thread::id" = type { i64 }
%"class.std::promise" = type { %"class.std::shared_ptr.86", %"class.std::unique_ptr" }
%"class.std::shared_ptr.86" = type { %"class.std::__shared_ptr.87" }
%"class.std::__shared_ptr.87" = type { ptr, %"class.std::__shared_count" }
%"class.std::unique_ptr" = type { %"struct.std::__uniq_ptr_data" }
%"struct.std::__uniq_ptr_data" = type { %"class.std::__uniq_ptr_impl" }
%"class.std::__uniq_ptr_impl" = type { %"class.std::tuple" }
%"class.std::tuple" = type { %"struct.std::_Tuple_impl" }
%"struct.std::_Tuple_impl" = type { %"struct.std::_Head_base.90" }
%"struct.std::_Head_base.90" = type { ptr }

; Function Attrs: mustprogress uwtable
define void @_ZN3nix20PathSubstitutionGoal4workEv(ptr noundef nonnull align 8 dereferenceable(1080) %0) unnamed_addr #5 align 2 {
  %2 = alloca ptr, align 8
  store ptr %0, ptr %2, align 8
  %3 = load ptr, ptr %2, align 8
  %4 = getelementptr inbounds %"struct.nix::PathSubstitutionGoal", ptr %3, i32 0, i32 16
  %5 = load { i64, i64 }, ptr %4, align 8
  %6 = extractvalue { i64, i64 } %5, 1
  %7 = getelementptr inbounds i8, ptr %3, i64 %6
  %8 = extractvalue { i64, i64 } %5, 0
  %9 = and i64 %8, 1
  %10 = icmp ne i64 %9, 0
  br i1 %10, label %11, label %16

11:                                               ; preds = %1
  %12 = load ptr, ptr %7, align 8
  %13 = sub i64 %8, 1
  %14 = getelementptr i8, ptr %12, i64 %13, !nosanitize !4
  %15 = load ptr, ptr %14, align 8, !nosanitize !4
  br label %18

16:                                               ; preds = %1
  %17 = inttoptr i64 %8 to ptr
  br label %18

18:                                               ; preds = %16, %11
  %19 = phi ptr [ %15, %11 ], [ %17, %16 ]
  call void %19(ptr noundef nonnull align 8 dereferenceable(1080) %7)
  ret void
}